target datalayout = "e-m:e-p270:32:32-p271:32:32-p272:64:64-i64:64-i128:128-f80:128-n8:16:32:64-S128"
target triple = "x86_64-unknown-linux-gnu"

%"struct.std::atomic.1" = type { %"struct.std::__atomic_base.0" }
%"struct.std::__atomic_base.0" = type { ptr }
%"class.absl::cord_internal::CordzInfo" = type <{ %"class.absl::cord_internal::CordzHandle", ptr, %"struct.std::atomic.1", %"struct.std::atomic.1", %"class.absl::Mutex", ptr, [64 x ptr], [64 x ptr], i64, i64, i32, i32, %"class.absl::cord_internal::CordzUpdateTracker", %"class.absl::Time", [4 x i8] }>
%"class.absl::cord_internal::CordzHandle" = type { ptr, i8, ptr, ptr }
%"class.absl::Mutex" = type { %"struct.std::atomic.2" }
%"struct.std::atomic.2" = type { %"struct.std::__atomic_base.3" }
%"struct.std::__atomic_base.3" = type { i64 }
%"class.absl::cord_internal::CordzUpdateTracker" = type { [25 x %"class.absl::cord_internal::CordzUpdateTracker::Counter"] }
%"class.absl::cord_internal::CordzUpdateTracker::Counter" = type { %"struct.std::atomic.2" }
%"class.absl::Time" = type { %"class.absl::Duration" }
%"class.absl::Duration" = type { %"class.absl::Duration::HiRep", i32 }
%"class.absl::Duration::HiRep" = type { i32, i32 }

; Function Attrs: mustprogress nounwind uwtable
define dso_local noundef i64 @_ZN4absl13cord_internal9CordzInfo15FillParentStackEPKS1_PPv(ptr noundef %src, ptr noundef %stack) #0 align 2 {
entry:
  %retval = alloca i64, align 8
  %src.addr = alloca ptr, align 8
  %stack.addr = alloca ptr, align 8
  store ptr %src, ptr %src.addr, align 8
  store ptr %stack, ptr %stack.addr, align 8
  %0 = load ptr, ptr %src.addr, align 8
  %cmp = icmp eq ptr %0, null
  br i1 %cmp, label %if.then, label %if.end

if.then:                                          ; preds = %entry
  store i64 0, ptr %retval, align 8
  br label %return

if.end:                                           ; preds = %entry
  %1 = load ptr, ptr %src.addr, align 8
  %parent_stack_depth_ = getelementptr inbounds %"class.absl::cord_internal::CordzInfo", ptr %1, i32 0, i32 9
  %2 = load i64, ptr %parent_stack_depth_, align 8
  %tobool = icmp ne i64 %2, 0
  br i1 %tobool, label %if.then1, label %if.end4

if.then1:                                         ; preds = %if.end
  %3 = load ptr, ptr %stack.addr, align 8
  %4 = load ptr, ptr %src.addr, align 8
  %parent_stack_ = getelementptr inbounds %"class.absl::cord_internal::CordzInfo", ptr %4, i32 0, i32 7
  %arraydecay = getelementptr inbounds [64 x ptr], ptr %parent_stack_, i64 0, i64 0
  %5 = load ptr, ptr %src.addr, align 8
  %parent_stack_depth_2 = getelementptr inbounds %"class.absl::cord_internal::CordzInfo", ptr %5, i32 0, i32 9
  %6 = load i64, ptr %parent_stack_depth_2, align 8
  %mul = mul i64 %6, 8
  call void @llvm.memcpy.p0.p0.i64(ptr align 8 %3, ptr align 8 %arraydecay, i64 %mul, i1 false)
  %7 = load ptr, ptr %src.addr, align 8
  %parent_stack_depth_3 = getelementptr inbounds %"class.absl::cord_internal::CordzInfo", ptr %7, i32 0, i32 9
  %8 = load i64, ptr %parent_stack_depth_3, align 8
  store i64 %8, ptr %retval, align 8
  br label %return

if.end4:                                          ; preds = %if.end
  %9 = load ptr, ptr %stack.addr, align 8
  %10 = load ptr, ptr %src.addr, align 8
  %stack_ = getelementptr inbounds %"class.absl::cord_internal::CordzInfo", ptr %10, i32 0, i32 6
  %arraydecay5 = getelementptr inbounds [64 x ptr], ptr %stack_, i64 0, i64 0
  %11 = load ptr, ptr %src.addr, align 8
  %stack_depth_ = getelementptr inbounds %"class.absl::cord_internal::CordzInfo", ptr %11, i32 0, i32 8
  %12 = load i64, ptr %stack_depth_, align 8
  %mul6 = mul i64 %12, 8
  call void @llvm.memcpy.p0.p0.i64(ptr align 8 %9, ptr align 8 %arraydecay5, i64 %mul6, i1 false)
  %13 = load ptr, ptr %src.addr, align 8
  %stack_depth_7 = getelementptr inbounds %"class.absl::cord_internal::CordzInfo", ptr %13, i32 0, i32 8
  %14 = load i64, ptr %stack_depth_7, align 8
  store i64 %14, ptr %retval, align 8
  br label %return

return:                                           ; preds = %if.end4, %if.then1, %if.then
  %15 = load i64, ptr %retval, align 8
  ret i64 %15
}