; Function Attrs: mustprogress nofree norecurse nosync nounwind willreturn memory(readwrite, inaccessiblemem: none) uwtable
define dso_local noundef i64 @_ZN4absl13cord_internal9CordzInfo15FillParentStackEPKS1_PPv(ptr noundef readonly %src, ptr nocapture noundef writeonly %stack) local_unnamed_addr #6 align 2 {
entry:
  %cmp = icmp eq ptr %src, null
  br i1 %cmp, label %return, label %if.end

if.end:                                           ; preds = %entry
  %parent_stack_depth_ = getelementptr inbounds i8, ptr %src, i64 1104
  %0 = load i64, ptr %parent_stack_depth_, align 8
  %tobool.not = icmp eq i64 %0, 0
  br i1 %tobool.not, label %if.end4, label %if.then1

if.then1:                                         ; preds = %if.end
  %parent_stack_ = getelementptr inbounds i8, ptr %src, i64 584
  br label %return.sink.split

if.end4:                                          ; preds = %if.end
  %stack_ = getelementptr inbounds i8, ptr %src, i64 72
  %stack_depth_ = getelementptr inbounds i8, ptr %src, i64 1096
  %1 = load i64, ptr %stack_depth_, align 8
  br label %return.sink.split

return.sink.split:                                ; preds = %if.then1, %if.end4
  %.sink = phi i64 [ %1, %if.end4 ], [ %0, %if.then1 ]
  %stack_.sink = phi ptr [ %stack_, %if.end4 ], [ %parent_stack_, %if.then1 ]
  %stack_depth_.sink = phi ptr [ %stack_depth_, %if.end4 ], [ %parent_stack_depth_, %if.then1 ]
  %mul6 = shl i64 %.sink, 3
  tail call void @llvm.memcpy.p0.p0.i64(ptr align 8 %stack, ptr nonnull align 8 %stack_.sink, i64 %mul6, i1 false)
  %2 = load i64, ptr %stack_depth_.sink, align 8
  br label %return

return:                                           ; preds = %return.sink.split, %entry
  %retval.0 = phi i64 [ 0, %entry ], [ %2, %return.sink.split ]
  ret i64 %retval.0
}